target datalayout = "e-m:e-p270:32:32-p271:32:32-p272:64:64-i64:64-i128:128-f80:128-n8:16:32:64-S128"
target triple = "x86_64-pc-linux-gnu"

%"class.gmx::MultiDimArray" = type { %"struct.std::array", %"class.gmx::basic_mdspan" }
%"struct.std::array" = type { [9 x float] }
%"class.gmx::basic_mdspan" = type { [8 x i8], ptr }
%"class.gmx::extents" = type { i8 }
%"class.gmx::BoxDeformation" = type { double, i64, %"class.gmx::MultiDimArray", %"class.gmx::MultiDimArray" }

; Function Attrs: mustprogress nounwind uwtable
define linkonce_odr void @_ZN3gmx12layout_right7mappingINS_7extentsIJLl3ELl3EEEEEC2ERKS3_(ptr noundef nonnull align 1 dereferenceable(1) %0, ptr noundef nonnull align 1 dereferenceable(1) %1) unnamed_addr #2 comdat align 2 {
  %3 = alloca ptr, align 8
  %4 = alloca ptr, align 8
  store ptr %0, ptr %3, align 8, !tbaa !285
  store ptr %1, ptr %4, align 8, !tbaa !283
  %5 = load ptr, ptr %3, align 8
  %6 = load ptr, ptr %4, align 8, !tbaa !283
  call void @llvm.memcpy.p0.p0.i64(ptr align 1 %5, ptr align 1 %6, i64 1, i1 false), !tbaa.struct !143
  ret void
}

; Function Attrs: mustprogress nounwind uwtable
define linkonce_odr noundef nonnull align 1 dereferenceable(1) ptr @_ZNK3gmx12layout_right7mappingINS_7extentsIJLl3ELl3EEEEE7extentsEv(ptr noundef nonnull align 1 dereferenceable(1) %0) #2 comdat align 2 {
  %2 = alloca ptr, align 8
  store ptr %0, ptr %2, align 8, !tbaa !285
  %3 = load ptr, ptr %2, align 8
  ret ptr %3
}

; Function Attrs: mustprogress nounwind uwtable
define linkonce_odr noundef ptr @_ZNSt14__array_traitsIfLm9EE6_S_ptrERA9_Kf(ptr noundef nonnull align 4 dereferenceable(36) %0) #2 comdat align 2 {
  %2 = alloca ptr, align 8
  store ptr %0, ptr %2, align 8, !tbaa !145
  %3 = load ptr, ptr %2, align 8, !tbaa !145
  %4 = getelementptr inbounds [9 x float], ptr %3, i64 0, i64 0
  ret ptr %4
}

; Function Attrs: mustprogress nounwind uwtable
define linkonce_odr void @_ZN3gmx12basic_mdspanIfNS_7extentsIJLl3ELl3EEEENS_12layout_rightENS_14accessor_basicIfEEEC2IJS2_EEEPfDpT_(ptr noundef nonnull align 8 dereferenceable(16) %0, ptr noundef %1) unnamed_addr #2 comdat align 2 {
  %3 = alloca %"class.gmx::extents", align 1
  %4 = alloca ptr, align 8
  %5 = alloca ptr, align 8
  %6 = alloca %"class.gmx::extents", align 1
  store ptr %0, ptr %4, align 8, !tbaa !273
  store ptr %1, ptr %5, align 8, !tbaa !145
  %7 = load ptr, ptr %4, align 8
  %8 = getelementptr inbounds i8, ptr %7, i64 1
  call void @llvm.lifetime.start.p0(i64 1, ptr %6) #20
  call void @llvm.memcpy.p0.p0.i64(ptr align 1 %6, ptr align 1 %3, i64 1, i1 false), !tbaa.struct !143
  call void @_ZN3gmx12layout_right7mappingINS_7extentsIJLl3ELl3EEEEEC2ERKS3_(ptr noundef nonnull align 1 dereferenceable(1) %8, ptr noundef nonnull align 1 dereferenceable(1) %6) #20
  call void @llvm.lifetime.end.p0(i64 1, ptr %6) #20
  %9 = getelementptr inbounds nuw %"class.gmx::basic_mdspan", ptr %7, i32 0, i32 1
  %10 = load ptr, ptr %5, align 8, !tbaa !145
  store ptr %10, ptr %9, align 8, !tbaa !275
  ret void
}

; Function Attrs: mustprogress nounwind uwtable
define linkonce_odr noundef nonnull align 1 dereferenceable(1) ptr @_ZNK3gmx12basic_mdspanIfNS_7extentsIJLl3ELl3EEEENS_12layout_rightENS_14accessor_basicIfEEE7extentsEv(ptr noundef nonnull align 8 dereferenceable(16) %0) #2 comdat align 2 {
  %2 = alloca ptr, align 8
  store ptr %0, ptr %2, align 8, !tbaa !273
  %3 = load ptr, ptr %2, align 8
  %4 = getelementptr inbounds i8, ptr %3, i64 1
  %5 = call noundef nonnull align 1 dereferenceable(1) ptr @_ZNK3gmx12layout_right7mappingINS_7extentsIJLl3ELl3EEEEE7extentsEv(ptr noundef nonnull align 1 dereferenceable(1) %4) #20
  ret ptr %5
}

; Function Attrs: mustprogress nounwind willreturn memory(none) uwtable
define linkonce_odr noundef ptr @_ZNSt5arrayIfLm9EE4dataEv(ptr noundef nonnull align 4 dereferenceable(36) %0) #18 comdat align 2 {
  %2 = alloca ptr, align 8
  store ptr %0, ptr %2, align 8, !tbaa !139
  %3 = load ptr, ptr %2, align 8
  %4 = getelementptr inbounds nuw %"struct.std::array", ptr %3, i32 0, i32 0
  %5 = call noundef ptr @_ZNSt14__array_traitsIfLm9EE6_S_ptrERA9_Kf(ptr noundef nonnull align 4 dereferenceable(36) %4) #20
  ret ptr %5
}

; Function Attrs: mustprogress nounwind uwtable
define linkonce_odr void @_ZN3gmx13MultiDimArrayISt5arrayIfLm9EENS_7extentsIJLl3ELl3EEEENS_12layout_rightEEC2ERKS6_(ptr noundef nonnull align 8 dereferenceable(56) %0, ptr noundef nonnull align 8 dereferenceable(56) %1) unnamed_addr #2 comdat align 2 {
  %3 = alloca ptr, align 8
  %4 = alloca ptr, align 8
  %5 = alloca %"class.gmx::extents", align 1
  store ptr %0, ptr %3, align 8, !tbaa !4
  store ptr %1, ptr %4, align 8, !tbaa !4
  %6 = load ptr, ptr %3, align 8
  %7 = getelementptr inbounds nuw %"class.gmx::MultiDimArray", ptr %6, i32 0, i32 0
  %8 = load ptr, ptr %4, align 8, !tbaa !4
  %9 = getelementptr inbounds nuw %"class.gmx::MultiDimArray", ptr %8, i32 0, i32 0
  call void @llvm.memcpy.p0.p0.i64(ptr align 8 %7, ptr align 8 %9, i64 36, i1 false), !tbaa.struct !141
  %10 = getelementptr inbounds nuw %"class.gmx::MultiDimArray", ptr %6, i32 0, i32 1
  %11 = getelementptr inbounds nuw %"class.gmx::MultiDimArray", ptr %6, i32 0, i32 0
  %12 = call noundef ptr @_ZNSt5arrayIfLm9EE4dataEv(ptr noundef nonnull align 4 dereferenceable(36) %11) #22
  %13 = load ptr, ptr %4, align 8, !tbaa !4
  %14 = getelementptr inbounds nuw %"class.gmx::MultiDimArray", ptr %13, i32 0, i32 1
  %15 = call noundef nonnull align 1 dereferenceable(1) ptr @_ZNK3gmx12basic_mdspanIfNS_7extentsIJLl3ELl3EEEENS_12layout_rightENS_14accessor_basicIfEEE7extentsEv(ptr noundef nonnull align 8 dereferenceable(16) %14) #20
  call void @llvm.memcpy.p0.p0.i64(ptr align 1 %5, ptr align 1 %15, i64 1, i1 false), !tbaa.struct !143
  call void @_ZN3gmx12basic_mdspanIfNS_7extentsIJLl3ELl3EEEENS_12layout_rightENS_14accessor_basicIfEEEC2IJS2_EEEPfDpT_(ptr noundef nonnull align 8 dereferenceable(16) %10, ptr noundef %12) #20
  ret void
}

; Function Attrs: mustprogress uwtable
define void @_ZN3gmx14BoxDeformationC2EdlRKNS_13MultiDimArrayISt5arrayIfLm9EENS_7extentsIJLl3ELl3EEEENS_12layout_rightEEES9_(ptr noundef nonnull align 8 dereferenceable(128) %0, double noundef %1, i64 noundef %2, ptr noundef nonnull align 8 dereferenceable(56) %3, ptr noundef nonnull align 8 dereferenceable(56) %4) unnamed_addr #0 align 2 {
  %6 = alloca ptr, align 8
  %7 = alloca double, align 8
  %8 = alloca i64, align 8
  %9 = alloca ptr, align 8
  %10 = alloca ptr, align 8
  store ptr %0, ptr %6, align 8, !tbaa !297
  store double %1, ptr %7, align 8, !tbaa !152
  store i64 %2, ptr %8, align 8, !tbaa !153
  store ptr %3, ptr %9, align 8, !tbaa !4
  store ptr %4, ptr %10, align 8, !tbaa !4
  %11 = load ptr, ptr %6, align 8
  %12 = getelementptr inbounds nuw %"class.gmx::BoxDeformation", ptr %11, i32 0, i32 0
  %13 = load double, ptr %7, align 8, !tbaa !152
  store double %13, ptr %12, align 8, !tbaa !301
  %14 = getelementptr inbounds nuw %"class.gmx::BoxDeformation", ptr %11, i32 0, i32 1
  %15 = load i64, ptr %8, align 8, !tbaa !153
  store i64 %15, ptr %14, align 8, !tbaa !305
  %16 = getelementptr inbounds nuw %"class.gmx::BoxDeformation", ptr %11, i32 0, i32 2
  %17 = load ptr, ptr %9, align 8, !tbaa !4
  call void @_ZN3gmx13MultiDimArrayISt5arrayIfLm9EENS_7extentsIJLl3ELl3EEEENS_12layout_rightEEC2ERKS6_(ptr noundef nonnull align 8 dereferenceable(56) %16, ptr noundef nonnull align 8 dereferenceable(56) %17)
  %18 = getelementptr inbounds nuw %"class.gmx::BoxDeformation", ptr %11, i32 0, i32 3
  %19 = load ptr, ptr %10, align 8, !tbaa !4
  call void @_ZN3gmx13MultiDimArrayISt5arrayIfLm9EENS_7extentsIJLl3ELl3EEEENS_12layout_rightEEC2ERKS6_(ptr noundef nonnull align 8 dereferenceable(56) %18, ptr noundef nonnull align 8 dereferenceable(56) %19)
  ret void
}