; Function Attrs: mustprogress nofree norecurse nosync nounwind willreturn memory(argmem: readwrite) uwtable
define void @_ZN3gmx14BoxDeformationC2EdlRKNS_13MultiDimArrayISt5arrayIfLm9EENS_7extentsIJLl3ELl3EEEENS_12layout_rightEEES9_(ptr noundef nonnull align 8 dereferenceable(128) initializes((0, 52)) %0, double noundef %1, i64 noundef %2, ptr noundef nonnull readonly align 8 captures(none) dereferenceable(56) %3, ptr noundef nonnull readonly align 8 captures(none) dereferenceable(56) %4) unnamed_addr #15 align 2 {
  store double %1, ptr %0, align 8, !tbaa !162
  %6 = getelementptr inbounds nuw i8, ptr %0, i64 8
  store i64 %2, ptr %6, align 8, !tbaa !166
  %7 = getelementptr inbounds nuw i8, ptr %0, i64 16
  tail call void @llvm.memcpy.p0.p0.i64(ptr noundef nonnull align 8 dereferenceable(56) %7, ptr noundef nonnull align 8 dereferenceable(56) %3, i64 36, i1 false), !tbaa.struct !119
  %8 = getelementptr inbounds nuw i8, ptr %0, i64 64
  store ptr %7, ptr %8, align 8, !tbaa !111
  %9 = getelementptr inbounds nuw i8, ptr %0, i64 72
  tail call void @llvm.memcpy.p0.p0.i64(ptr noundef nonnull align 8 dereferenceable(56) %9, ptr noundef nonnull align 8 dereferenceable(56) %4, i64 36, i1 false), !tbaa.struct !119
  %10 = getelementptr inbounds nuw i8, ptr %0, i64 120
  store ptr %9, ptr %10, align 8, !tbaa !111
  ret void
}